target datalayout = "e-m:e-p270:32:32-p271:32:32-p272:64:64-i64:64-i128:128-f80:128-n8:16:32:64-S128"
target triple = "x86_64-unknown-linux-gnu"

%"class.google::protobuf::compiler::java::ImmutablePrimitiveFieldLiteGenerator" = type { %"class.google::protobuf::compiler::java::ImmutableFieldLiteGenerator", ptr, %"class.absl::lts_20230802::flat_hash_map", i32, ptr, ptr }
%"class.google::protobuf::compiler::java::ImmutableFieldLiteGenerator" = type { ptr }
%"class.absl::lts_20230802::flat_hash_map" = type { %"class.absl::lts_20230802::container_internal::raw_hash_map" }
%"class.absl::lts_20230802::container_internal::raw_hash_map" = type { %"class.absl::lts_20230802::container_internal::raw_hash_set" }
%"class.absl::lts_20230802::container_internal::raw_hash_set" = type { %"class.absl::lts_20230802::container_internal::CompressedTuple" }
%"class.absl::lts_20230802::container_internal::CompressedTuple" = type { %"struct.absl::lts_20230802::container_internal::internal_compressed_tuple::CompressedTupleImpl" }
%"struct.absl::lts_20230802::container_internal::internal_compressed_tuple::CompressedTupleImpl" = type { %"struct.absl::lts_20230802::container_internal::internal_compressed_tuple::Storage" }
%"struct.absl::lts_20230802::container_internal::internal_compressed_tuple::Storage" = type { %"class.absl::lts_20230802::container_internal::CommonFields" }
%"class.absl::lts_20230802::container_internal::CommonFields" = type { ptr, ptr, i64, %"class.absl::lts_20230802::container_internal::CompressedTuple.0" }
%"class.absl::lts_20230802::container_internal::CompressedTuple.0" = type { %"struct.absl::lts_20230802::container_internal::internal_compressed_tuple::CompressedTupleImpl.1" }
%"struct.absl::lts_20230802::container_internal::internal_compressed_tuple::CompressedTupleImpl.1" = type { %"struct.absl::lts_20230802::container_internal::internal_compressed_tuple::Storage.2" }
%"struct.absl::lts_20230802::container_internal::internal_compressed_tuple::Storage.2" = type { i64 }
%"class.google::protobuf::FieldDescriptor" = type { %"class.google::protobuf::internal::SymbolBase", i8, i8, i8, i32, ptr, ptr, ptr, ptr, %union.anon.34, %union.anon.35, ptr, ptr, ptr, %union.anon.36 }
%"class.google::protobuf::internal::SymbolBase" = type { i8 }
%union.anon.34 = type { ptr }
%union.anon.35 = type { ptr }
%union.anon.36 = type { i64 }
%"class.google::protobuf::OneofDescriptor" = type { %"class.google::protobuf::internal::SymbolBase", i32, ptr, ptr, ptr, ptr, ptr, ptr }
%"class.google::protobuf::Descriptor" = type { %"class.google::protobuf::internal::SymbolBase", i8, i16, i32, ptr, ptr, ptr, ptr, ptr, ptr, ptr, ptr, ptr, ptr, ptr, ptr, ptr, ptr, i32, i32, i32, i32, i32, i32, i32, i32 }

; Function Attrs: mustprogress nounwind uwtable
define linkonce_odr hidden noundef i32 @_ZNK6google8protobuf15OneofDescriptor5indexEv(ptr noundef nonnull align 8 dereferenceable(56) %this) #5 comdat align 2 {
entry:
  %this.addr = alloca ptr, align 8
  store ptr %this, ptr %this.addr, align 8
  %this1 = load ptr, ptr %this.addr, align 8
  %containing_type_ = getelementptr inbounds %"class.google::protobuf::OneofDescriptor", ptr %this1, i32 0, i32 3
  %0 = load ptr, ptr %containing_type_, align 8
  %oneof_decls_ = getelementptr inbounds %"class.google::protobuf::Descriptor", ptr %0, i32 0, i32 11
  %1 = load ptr, ptr %oneof_decls_, align 8
  %sub.ptr.lhs.cast = ptrtoint ptr %this1 to i64
  %sub.ptr.rhs.cast = ptrtoint ptr %1 to i64
  %sub.ptr.sub = sub i64 %sub.ptr.lhs.cast, %sub.ptr.rhs.cast
  %sub.ptr.div = sdiv exact i64 %sub.ptr.sub, 56
  %conv = trunc i64 %sub.ptr.div to i32
  ret i32 %conv
}

; Function Attrs: mustprogress nounwind uwtable
define linkonce_odr hidden noundef ptr @_ZNK6google8protobuf15FieldDescriptor16containing_oneofEv(ptr noundef nonnull align 8 dereferenceable(88) %this) #5 comdat align 2 {
entry:
  %this.addr = alloca ptr, align 8
  store ptr %this, ptr %this.addr, align 8
  %this1 = load ptr, ptr %this.addr, align 8
  %is_oneof_ = getelementptr inbounds %"class.google::protobuf::FieldDescriptor", ptr %this1, i32 0, i32 1
  %bf.load = load i8, ptr %is_oneof_, align 1
  %bf.lshr = lshr i8 %bf.load, 4
  %bf.clear = and i8 %bf.lshr, 1
  %bf.cast = trunc i8 %bf.clear to i1
  br i1 %bf.cast, label %cond.true, label %cond.false

cond.true:                                        ; preds = %entry
  %scope_ = getelementptr inbounds %"class.google::protobuf::FieldDescriptor", ptr %this1, i32 0, i32 9
  %0 = load ptr, ptr %scope_, align 8
  br label %cond.end

cond.false:                                       ; preds = %entry
  br label %cond.end

cond.end:                                         ; preds = %cond.false, %cond.true
  %cond = phi ptr [ %0, %cond.true ], [ null, %cond.false ]
  ret ptr %cond
}

; Function Attrs: mustprogress uwtable
define linkonce_odr hidden void @_ZN6google8protobuf8compiler4java27WriteIntToUtf16CharSequenceEiPSt6vectorItSaItEE(i32 noundef %value, ptr noundef %output) #4 comdat {
entry:
  %value.addr = alloca i32, align 4
  %output.addr = alloca ptr, align 8
  store i32 %value, ptr %value.addr, align 4
  store ptr %output, ptr %output.addr, align 8
  %0 = load i32, ptr %value.addr, align 4
  %1 = load ptr, ptr %output.addr, align 8
  call void @_ZN6google8protobuf8compiler4java30WriteUInt32ToUtf16CharSequenceEjPSt6vectorItSaItEE(i32 noundef %0, ptr noundef %1)
  ret void
}

; Function Attrs: mustprogress nounwind uwtable
define linkonce_odr hidden noundef i32 @_ZNK6google8protobuf15FieldDescriptor6numberEv(ptr noundef nonnull align 8 dereferenceable(88) %this) #5 comdat align 2 {
entry:
  %this.addr = alloca ptr, align 8
  store ptr %this, ptr %this.addr, align 8
  %this1 = load ptr, ptr %this.addr, align 8
  %number_ = getelementptr inbounds %"class.google::protobuf::FieldDescriptor", ptr %this1, i32 0, i32 4
  %0 = load i32, ptr %number_, align 4
  ret i32 %0
}

; Function Attrs: mustprogress uwtable
define hidden void @_ZNK6google8protobuf8compiler4java41ImmutablePrimitiveOneofFieldLiteGenerator17GenerateFieldInfoEPNS0_2io7PrinterEPSt6vectorItSaItEE(ptr noundef nonnull align 8 dereferenceable(72) %this, ptr noundef %printer, ptr noundef %output) unnamed_addr #4 align 2 {
entry:
  %this.addr = alloca ptr, align 8
  %printer.addr = alloca ptr, align 8
  %output.addr = alloca ptr, align 8
  store ptr %this, ptr %this.addr, align 8
  store ptr %printer, ptr %printer.addr, align 8
  store ptr %output, ptr %output.addr, align 8
  %this1 = load ptr, ptr %this.addr, align 8
  %descriptor_ = getelementptr inbounds %"class.google::protobuf::compiler::java::ImmutablePrimitiveFieldLiteGenerator", ptr %this1, i32 0, i32 1
  %0 = load ptr, ptr %descriptor_, align 8
  %call = call noundef i32 @_ZNK6google8protobuf15FieldDescriptor6numberEv(ptr noundef nonnull align 8 dereferenceable(88) %0)
  %1 = load ptr, ptr %output.addr, align 8
  call void @_ZN6google8protobuf8compiler4java27WriteIntToUtf16CharSequenceEiPSt6vectorItSaItEE(i32 noundef %call, ptr noundef %1)
  %descriptor_2 = getelementptr inbounds %"class.google::protobuf::compiler::java::ImmutablePrimitiveFieldLiteGenerator", ptr %this1, i32 0, i32 1
  %2 = load ptr, ptr %descriptor_2, align 8
  %call3 = call noundef i32 @_ZN6google8protobuf8compiler4java28GetExperimentalJavaFieldTypeEPKNS0_15FieldDescriptorE(ptr noundef %2)
  %3 = load ptr, ptr %output.addr, align 8
  call void @_ZN6google8protobuf8compiler4java27WriteIntToUtf16CharSequenceEiPSt6vectorItSaItEE(i32 noundef %call3, ptr noundef %3)
  %descriptor_4 = getelementptr inbounds %"class.google::protobuf::compiler::java::ImmutablePrimitiveFieldLiteGenerator", ptr %this1, i32 0, i32 1
  %4 = load ptr, ptr %descriptor_4, align 8
  %call5 = call noundef ptr @_ZNK6google8protobuf15FieldDescriptor16containing_oneofEv(ptr noundef nonnull align 8 dereferenceable(88) %4)
  %call6 = call noundef i32 @_ZNK6google8protobuf15OneofDescriptor5indexEv(ptr noundef nonnull align 8 dereferenceable(56) %call5)
  %5 = load ptr, ptr %output.addr, align 8
  call void @_ZN6google8protobuf8compiler4java27WriteIntToUtf16CharSequenceEiPSt6vectorItSaItEE(i32 noundef %call6, ptr noundef %5)
  ret void
}