; Function Attrs: mustprogress uwtable
define hidden void @_ZNK6google8protobuf8compiler4java41ImmutablePrimitiveOneofFieldLiteGenerator17GenerateFieldInfoEPNS0_2io7PrinterEPSt6vectorItSaItEE(ptr nocapture noundef nonnull readonly align 8 dereferenceable(72) %this, ptr nocapture readnone %printer, ptr noundef %output) unnamed_addr #3 align 2 {
entry:
  %descriptor_ = getelementptr inbounds i8, ptr %this, i64 8
  %0 = load ptr, ptr %descriptor_, align 8
  %number_.i = getelementptr inbounds i8, ptr %0, i64 4
  %1 = load i32, ptr %number_.i, align 4
  tail call void @_ZN6google8protobuf8compiler4java30WriteUInt32ToUtf16CharSequenceEjPSt6vectorItSaItEE(i32 noundef %1, ptr noundef %output)
  %2 = load ptr, ptr %descriptor_, align 8
  %call3 = tail call noundef i32 @_ZN6google8protobuf8compiler4java28GetExperimentalJavaFieldTypeEPKNS0_15FieldDescriptorE(ptr noundef %2)
  tail call void @_ZN6google8protobuf8compiler4java30WriteUInt32ToUtf16CharSequenceEjPSt6vectorItSaItEE(i32 noundef %call3, ptr noundef %output)
  %3 = load ptr, ptr %descriptor_, align 8
  %is_oneof_.i = getelementptr inbounds i8, ptr %3, i64 1
  %bf.load.i = load i8, ptr %is_oneof_.i, align 1
  %4 = and i8 %bf.load.i, 16
  %bf.cast.not.i = icmp eq i8 %4, 0
  %scope_.i = getelementptr inbounds i8, ptr %3, i64 40
  %5 = load ptr, ptr %scope_.i, align 8
  %cond.i = select i1 %bf.cast.not.i, ptr null, ptr %5
  %containing_type_.i = getelementptr inbounds i8, ptr %cond.i, i64 16
  %6 = load ptr, ptr %containing_type_.i, align 8
  %oneof_decls_.i = getelementptr inbounds i8, ptr %6, i64 64
  %7 = load ptr, ptr %oneof_decls_.i, align 8
  %sub.ptr.lhs.cast.i = ptrtoint ptr %cond.i to i64
  %sub.ptr.rhs.cast.i = ptrtoint ptr %7 to i64
  %sub.ptr.sub.i = sub i64 %sub.ptr.lhs.cast.i, %sub.ptr.rhs.cast.i
  %sub.ptr.div.i = sdiv exact i64 %sub.ptr.sub.i, 56
  %conv.i = trunc i64 %sub.ptr.div.i to i32
  tail call void @_ZN6google8protobuf8compiler4java30WriteUInt32ToUtf16CharSequenceEjPSt6vectorItSaItEE(i32 noundef %conv.i, ptr noundef %output)
  ret void
}